; ModuleID = '28/104.c'
source_filename = "28/104.c"
target datalayout = "e-m:e-p270:32:32-p271:32:32-p272:64:64-i64:64-f80:128-n8:16:32:64-S128"
target triple = "x86_64-pc-linux-gnu"

@.str = private unnamed_addr constant [3 x i8] c"%s\00", align 1
@.str.1 = private unnamed_addr constant [3 x i8] c"%d\00", align 1
@.str.2 = private unnamed_addr constant [4 x i8] c",%d\00", align 1

; Function Attrs: noinline nounwind uwtable
define dso_local void @main() #0 {
  %1 = alloca [300 x [20 x i8]], align 16
  %2 = alloca i32, align 4
  %3 = bitcast [300 x [20 x i8]]* %1 to i8*
  call void @llvm.memset.p0i8.i64(i8* align 16 %3, i8 0, i64 6000, i1 false)
  %4 = getelementptr inbounds [300 x [20 x i8]], [300 x [20 x i8]]* %1, i64 0, i64 0
  %5 = getelementptr inbounds [20 x i8], [20 x i8]* %4, i64 0, i64 0
  %6 = call i32 (i8*, ...) @__isoc99_scanf(i8* getelementptr inbounds ([3 x i8], [3 x i8]* @.str, i64 0, i64 0), i8* %5)
  store i32 1, i32* %2, align 4
  br label %7

7:                                                ; preds = %16, %0
  %8 = call i32 @getchar()
  %9 = icmp ne i32 %8, 10
  br i1 %9, label %10, label %19

10:                                               ; preds = %7
  %11 = load i32, i32* %2, align 4
  %12 = sext i32 %11 to i64
  %13 = getelementptr inbounds [300 x [20 x i8]], [300 x [20 x i8]]* %1, i64 0, i64 %12
  %14 = getelementptr inbounds [20 x i8], [20 x i8]* %13, i64 0, i64 0
  %15 = call i32 (i8*, ...) @__isoc99_scanf(i8* getelementptr inbounds ([3 x i8], [3 x i8]* @.str, i64 0, i64 0), i8* %14)
  br label %16

16:                                               ; preds = %10
  %17 = load i32, i32* %2, align 4
  %18 = add nsw i32 %17, 1
  store i32 %18, i32* %2, align 4
  br label %7

19:                                               ; preds = %7
  %20 = getelementptr inbounds [300 x [20 x i8]], [300 x [20 x i8]]* %1, i64 0, i64 0
  %21 = getelementptr inbounds [20 x i8], [20 x i8]* %20, i64 0, i64 0
  %22 = call i64 @strlen(i8* %21) #4
  %23 = call i32 (i8*, ...) @printf(i8* getelementptr inbounds ([3 x i8], [3 x i8]* @.str.1, i64 0, i64 0), i64 %22)
  store i32 1, i32* %2, align 4
  br label %24

24:                                               ; preds = %39, %19
  %25 = load i32, i32* %2, align 4
  %26 = sext i32 %25 to i64
  %27 = getelementptr inbounds [300 x [20 x i8]], [300 x [20 x i8]]* %1, i64 0, i64 %26
  %28 = getelementptr inbounds [20 x i8], [20 x i8]* %27, i64 0, i64 0
  %29 = load i8, i8* %28, align 4
  %30 = sext i8 %29 to i32
  %31 = icmp ne i32 %30, 0
  br i1 %31, label %32, label %42

32:                                               ; preds = %24
  %33 = load i32, i32* %2, align 4
  %34 = sext i32 %33 to i64
  %35 = getelementptr inbounds [300 x [20 x i8]], [300 x [20 x i8]]* %1, i64 0, i64 %34
  %36 = getelementptr inbounds [20 x i8], [20 x i8]* %35, i64 0, i64 0
  %37 = call i64 @strlen(i8* %36) #4
  %38 = call i32 (i8*, ...) @printf(i8* getelementptr inbounds ([4 x i8], [4 x i8]* @.str.2, i64 0, i64 0), i64 %37)
  br label %39

39:                                               ; preds = %32
  %40 = load i32, i32* %2, align 4
  %41 = add nsw i32 %40, 1
  store i32 %41, i32* %2, align 4
  br label %24

42:                                               ; preds = %24
  ret void
}

; Function Attrs: argmemonly nounwind willreturn
declare void @llvm.memset.p0i8.i64(i8* nocapture writeonly, i8, i64, i1 immarg) #1

declare dso_local i32 @__isoc99_scanf(i8*, ...) #2

declare dso_local i32 @getchar() #2

declare dso_local i32 @printf(i8*, ...) #2

; Function Attrs: nounwind readonly
declare dso_local i64 @strlen(i8*) #3


!llvm.module.flags = !{!0}
!llvm.ident = !{!1}

!0 = !{i32 1, !"wchar_size", i32 4}
!1 = !{!"clang version 10.0.0-4ubuntu1 "}
