; ModuleID = 'source-C-CXX/27/104.c'
source_filename = "source-C-CXX/27/104.c"
target datalayout = "e-m:e-p270:32:32-p271:32:32-p272:64:64-i64:64-f80:128-n8:16:32:64-S128"
target triple = "x86_64-pc-linux-gnu"

%struct._IO_FILE = type { i32, i8*, i8*, i8*, i8*, i8*, i8*, i8*, i8*, i8*, i8*, i8*, %struct._IO_marker*, %struct._IO_FILE*, i32, i32, i64, i16, i8, [1 x i8], i8*, i64, %struct._IO_codecvt*, %struct._IO_wide_data*, %struct._IO_FILE*, i8*, i64, i32, [20 x i8] }
%struct._IO_marker = type opaque
%struct._IO_codecvt = type opaque
%struct._IO_wide_data = type opaque

@.str = private unnamed_addr constant [3 x i8] c"%s\00", align 1
@.str.1 = private unnamed_addr constant [3 x i8] c"%d\00", align 1
@.str.2 = private unnamed_addr constant [4 x i8] c",%d\00", align 1
@stdin = external local_unnamed_addr global %struct._IO_FILE*, align 8

; Function Attrs: nofree nounwind sspstrong uwtable
define dso_local void @main() local_unnamed_addr #0 {
  %1 = alloca [300 x [20 x i8]], align 16
  %2 = getelementptr inbounds [300 x [20 x i8]], [300 x [20 x i8]]* %1, i64 0, i64 0, i64 0
  call void @llvm.lifetime.start.p0i8(i64 6000, i8* nonnull %2) #5
  call void @llvm.memset.p0i8.i64(i8* noundef nonnull align 16 dereferenceable(6000) %2, i8 0, i64 6000, i1 false)
  %3 = call i32 (i8*, ...) @__isoc99_scanf(i8* getelementptr inbounds ([3 x i8], [3 x i8]* @.str, i64 0, i64 0), i8* nonnull %2)
  %4 = load %struct._IO_FILE*, %struct._IO_FILE** @stdin, align 8, !tbaa !5
  %5 = call i32 @getc(%struct._IO_FILE* %4) #5
  %6 = icmp eq i32 %5, 10
  br i1 %6, label %15, label %7

7:                                                ; preds = %0, %7
  %8 = phi i64 [ %11, %7 ], [ 1, %0 ]
  %9 = getelementptr inbounds [300 x [20 x i8]], [300 x [20 x i8]]* %1, i64 0, i64 %8, i64 0
  %10 = call i32 (i8*, ...) @__isoc99_scanf(i8* getelementptr inbounds ([3 x i8], [3 x i8]* @.str, i64 0, i64 0), i8* nonnull %9)
  %11 = add nuw i64 %8, 1
  %12 = load %struct._IO_FILE*, %struct._IO_FILE** @stdin, align 8, !tbaa !5
  %13 = call i32 @getc(%struct._IO_FILE* %12) #5
  %14 = icmp eq i32 %13, 10
  br i1 %14, label %15, label %7, !llvm.loop !9

15:                                               ; preds = %7, %0
  %16 = call i64 @strlen(i8* noundef nonnull %2) #6
  %17 = call i32 (i8*, ...) @printf(i8* nonnull dereferenceable(1) getelementptr inbounds ([3 x i8], [3 x i8]* @.str.1, i64 0, i64 0), i64 %16)
  %18 = getelementptr inbounds [300 x [20 x i8]], [300 x [20 x i8]]* %1, i64 0, i64 1, i64 0
  %19 = load i8, i8* %18, align 4, !tbaa !11
  %20 = icmp eq i8 %19, 0
  br i1 %20, label %30, label %21

21:                                               ; preds = %15, %21
  %22 = phi i64 [ %26, %21 ], [ 1, %15 ]
  %23 = phi i8* [ %27, %21 ], [ %18, %15 ]
  %24 = call i64 @strlen(i8* noundef nonnull %23) #6
  %25 = call i32 (i8*, ...) @printf(i8* nonnull dereferenceable(1) getelementptr inbounds ([4 x i8], [4 x i8]* @.str.2, i64 0, i64 0), i64 %24)
  %26 = add nuw i64 %22, 1
  %27 = getelementptr inbounds [300 x [20 x i8]], [300 x [20 x i8]]* %1, i64 0, i64 %26, i64 0
  %28 = load i8, i8* %27, align 4, !tbaa !11
  %29 = icmp eq i8 %28, 0
  br i1 %29, label %30, label %21, !llvm.loop !12

30:                                               ; preds = %21, %15
  call void @llvm.lifetime.end.p0i8(i64 6000, i8* nonnull %2) #5
  ret void
}

; Function Attrs: argmemonly mustprogress nofree nosync nounwind willreturn
declare void @llvm.lifetime.start.p0i8(i64 immarg, i8* nocapture) #1

; Function Attrs: argmemonly mustprogress nofree nounwind willreturn writeonly
declare void @llvm.memset.p0i8.i64(i8* nocapture writeonly, i8, i64, i1 immarg) #2

; Function Attrs: nofree nounwind
declare noundef i32 @__isoc99_scanf(i8* nocapture noundef readonly, ...) local_unnamed_addr #3

; Function Attrs: nofree nounwind
declare noundef i32 @printf(i8* nocapture noundef readonly, ...) local_unnamed_addr #3

; Function Attrs: argmemonly mustprogress nofree nounwind readonly willreturn
declare i64 @strlen(i8* nocapture) local_unnamed_addr #4

; Function Attrs: argmemonly mustprogress nofree nosync nounwind willreturn
declare void @llvm.lifetime.end.p0i8(i64 immarg, i8* nocapture) #1

; Function Attrs: nofree nounwind
declare noundef i32 @getc(%struct._IO_FILE* nocapture noundef) local_unnamed_addr #3


!llvm.module.flags = !{!0, !1, !2, !3}
!llvm.ident = !{!4}

!0 = !{i32 1, !"wchar_size", i32 4}
!1 = !{i32 7, !"PIC Level", i32 2}
!2 = !{i32 7, !"PIE Level", i32 2}
!3 = !{i32 7, !"uwtable", i32 1}
!4 = !{!"clang version 13.0.0"}
!5 = !{!6, !6, i64 0}
!6 = !{!"any pointer", !7, i64 0}
!7 = !{!"omnipotent char", !8, i64 0}
!8 = !{!"Simple C/C++ TBAA"}
!9 = distinct !{!9, !10}
!10 = !{!"llvm.loop.mustprogress"}
!11 = !{!7, !7, i64 0}
!12 = distinct !{!12, !10}
